target datalayout = "e-m:e-p270:32:32-p271:32:32-p272:64:64-i64:64-i128:128-f80:128-n8:16:32:64-S128"
target triple = "x86_64-pc-linux-gnu"

%struct.repository = type { ptr, ptr, ptr, ptr, ptr, %struct.strmap, %struct.strmap, %struct.repo_path_cache, ptr, ptr, ptr, ptr, %struct.repo_settings, ptr, ptr, ptr, ptr, ptr, ptr, i32, i32, i32, ptr, ptr, i32, i32, i8 }
%struct.strmap = type { %struct.hashmap, ptr, i8 }
%struct.hashmap = type { ptr, ptr, ptr, i32, i32, i32, i32, i8 }
%struct.repo_path_cache = type { ptr, ptr, ptr, ptr, ptr, ptr, ptr }
%struct.repo_settings = type { i32, i32, i32, i32, i32, i32, i32, i32, i32, i32, i32, i32, ptr, i32, i32, i32, i32, i32, i32, i32, i64, i64, i64 }
%struct.fsmonitor_settings = type { i32, i32, ptr }

; Function Attrs: nounwind uwtable
define internal ptr @alloc_settings() #0 {
  %1 = alloca ptr, align 8
  call void @llvm.lifetime.start.p0(i64 8, ptr %1) #7
  %2 = call ptr @xcalloc(i64 noundef 1, i64 noundef 16)
  store ptr %2, ptr %1, align 8, !tbaa !38
  %3 = load ptr, ptr %1, align 8, !tbaa !38
  %4 = getelementptr inbounds nuw %struct.fsmonitor_settings, ptr %3, i32 0, i32 0
  store i32 0, ptr %4, align 8, !tbaa !30
  %5 = load ptr, ptr %1, align 8, !tbaa !38
  %6 = getelementptr inbounds nuw %struct.fsmonitor_settings, ptr %5, i32 0, i32 1
  store i32 0, ptr %6, align 4, !tbaa !36
  %7 = load ptr, ptr %1, align 8, !tbaa !38
  call void @llvm.lifetime.end.p0(i64 8, ptr %1) #7
  ret ptr %7
}

; Function Attrs: nounwind uwtable
define dso_local void @fsm_settings__set_incompatible(ptr noundef %0, i32 noundef %1) #0 {
  %3 = alloca ptr, align 8
  %4 = alloca i32, align 4
  store ptr %0, ptr %3, align 8, !tbaa !4
  store i32 %1, ptr %4, align 4, !tbaa !33
  %5 = load ptr, ptr %3, align 8, !tbaa !4
  %6 = getelementptr inbounds nuw %struct.repository, ptr %5, i32 0, i32 12
  %7 = getelementptr inbounds nuw %struct.repo_settings, ptr %6, i32 0, i32 12
  %8 = load ptr, ptr %7, align 8, !tbaa !9
  %9 = icmp ne ptr %8, null
  br i1 %9, label %15, label %10

10:                                               ; preds = %2
  %11 = call ptr @alloc_settings()
  %12 = load ptr, ptr %3, align 8, !tbaa !4
  %13 = getelementptr inbounds nuw %struct.repository, ptr %12, i32 0, i32 12
  %14 = getelementptr inbounds nuw %struct.repo_settings, ptr %13, i32 0, i32 12
  store ptr %11, ptr %14, align 8, !tbaa !9
  br label %15

15:                                               ; preds = %10, %2
  %16 = load ptr, ptr %3, align 8, !tbaa !4
  %17 = getelementptr inbounds nuw %struct.repository, ptr %16, i32 0, i32 12
  %18 = getelementptr inbounds nuw %struct.repo_settings, ptr %17, i32 0, i32 12
  %19 = load ptr, ptr %18, align 8, !tbaa !9
  %20 = getelementptr inbounds nuw %struct.fsmonitor_settings, ptr %19, i32 0, i32 0
  store i32 -1, ptr %20, align 8, !tbaa !30
  %21 = load i32, ptr %4, align 4, !tbaa !33
  %22 = load ptr, ptr %3, align 8, !tbaa !4
  %23 = getelementptr inbounds nuw %struct.repository, ptr %22, i32 0, i32 12
  %24 = getelementptr inbounds nuw %struct.repo_settings, ptr %23, i32 0, i32 12
  %25 = load ptr, ptr %24, align 8, !tbaa !9
  %26 = getelementptr inbounds nuw %struct.fsmonitor_settings, ptr %25, i32 0, i32 1
  store i32 %21, ptr %26, align 4, !tbaa !36
  br label %27

27:                                               ; preds = %15
  %28 = load ptr, ptr %3, align 8, !tbaa !4
  %29 = getelementptr inbounds nuw %struct.repository, ptr %28, i32 0, i32 12
  %30 = getelementptr inbounds nuw %struct.repo_settings, ptr %29, i32 0, i32 12
  %31 = load ptr, ptr %30, align 8, !tbaa !9
  %32 = getelementptr inbounds nuw %struct.fsmonitor_settings, ptr %31, i32 0, i32 2
  %33 = load ptr, ptr %32, align 8, !tbaa !35
  call void @free(ptr noundef %33) #7
  %34 = load ptr, ptr %3, align 8, !tbaa !4
  %35 = getelementptr inbounds nuw %struct.repository, ptr %34, i32 0, i32 12
  %36 = getelementptr inbounds nuw %struct.repo_settings, ptr %35, i32 0, i32 12
  %37 = load ptr, ptr %36, align 8, !tbaa !9
  %38 = getelementptr inbounds nuw %struct.fsmonitor_settings, ptr %37, i32 0, i32 2
  store ptr null, ptr %38, align 8, !tbaa !35
  br label %39

39:                                               ; preds = %27
  ret void
}

; Function Attrs: nounwind uwtable
define internal i32 @check_for_incompatible(ptr noundef %0, i32 noundef %1) #0 {
  %3 = alloca i32, align 4
  %4 = alloca ptr, align 8
  %5 = alloca i32, align 4
  store ptr %0, ptr %4, align 8, !tbaa !4
  store i32 %1, ptr %5, align 4, !tbaa !33
  %6 = load ptr, ptr %4, align 8, !tbaa !4
  %7 = getelementptr inbounds nuw %struct.repository, ptr %6, i32 0, i32 10
  %8 = load ptr, ptr %7, align 8, !tbaa !37
  %9 = icmp ne ptr %8, null
  br i1 %9, label %11, label %10

10:                                               ; preds = %2
  store i32 2, ptr %3, align 4
  br label %12

11:                                               ; preds = %2
  store i32 1, ptr %3, align 4
  br label %12

12:                                               ; preds = %11, %10
  %13 = load i32, ptr %3, align 4
  ret i32 %13
}

; Function Attrs: nounwind uwtable
define dso_local void @fsm_settings__set_ipc(ptr noundef %0) #0 {
  %2 = alloca ptr, align 8
  %3 = alloca i32, align 4
  %4 = alloca i32, align 4
  store ptr %0, ptr %2, align 8, !tbaa !4
  call void @llvm.lifetime.start.p0(i64 4, ptr %3) #7
  %5 = load ptr, ptr %2, align 8, !tbaa !4
  %6 = call i32 @check_for_incompatible(ptr noundef %5, i32 noundef 1)
  store i32 %6, ptr %3, align 4, !tbaa !33
  %7 = load i32, ptr %3, align 4, !tbaa !33
  %8 = icmp ne i32 %7, 1
  br i1 %8, label %9, label %12

9:                                                ; preds = %1
  %10 = load ptr, ptr %2, align 8, !tbaa !4
  %11 = load i32, ptr %3, align 4, !tbaa !33
  call void @fsm_settings__set_incompatible(ptr noundef %10, i32 noundef %11)
  store i32 1, ptr %4, align 4
  br label %49

12:                                               ; preds = %1
  %13 = load ptr, ptr %2, align 8, !tbaa !4
  %14 = getelementptr inbounds nuw %struct.repository, ptr %13, i32 0, i32 12
  %15 = getelementptr inbounds nuw %struct.repo_settings, ptr %14, i32 0, i32 12
  %16 = load ptr, ptr %15, align 8, !tbaa !9
  %17 = icmp ne ptr %16, null
  br i1 %17, label %23, label %18

18:                                               ; preds = %12
  %19 = call ptr @alloc_settings()
  %20 = load ptr, ptr %2, align 8, !tbaa !4
  %21 = getelementptr inbounds nuw %struct.repository, ptr %20, i32 0, i32 12
  %22 = getelementptr inbounds nuw %struct.repo_settings, ptr %21, i32 0, i32 12
  store ptr %19, ptr %22, align 8, !tbaa !9
  br label %23

23:                                               ; preds = %18, %12
  %24 = load ptr, ptr %2, align 8, !tbaa !4
  %25 = getelementptr inbounds nuw %struct.repository, ptr %24, i32 0, i32 12
  %26 = getelementptr inbounds nuw %struct.repo_settings, ptr %25, i32 0, i32 12
  %27 = load ptr, ptr %26, align 8, !tbaa !9
  %28 = getelementptr inbounds nuw %struct.fsmonitor_settings, ptr %27, i32 0, i32 0
  store i32 2, ptr %28, align 8, !tbaa !30
  %29 = load i32, ptr %3, align 4, !tbaa !33
  %30 = load ptr, ptr %2, align 8, !tbaa !4
  %31 = getelementptr inbounds nuw %struct.repository, ptr %30, i32 0, i32 12
  %32 = getelementptr inbounds nuw %struct.repo_settings, ptr %31, i32 0, i32 12
  %33 = load ptr, ptr %32, align 8, !tbaa !9
  %34 = getelementptr inbounds nuw %struct.fsmonitor_settings, ptr %33, i32 0, i32 1
  store i32 %29, ptr %34, align 4, !tbaa !36
  br label %35

35:                                               ; preds = %23
  %36 = load ptr, ptr %2, align 8, !tbaa !4
  %37 = getelementptr inbounds nuw %struct.repository, ptr %36, i32 0, i32 12
  %38 = getelementptr inbounds nuw %struct.repo_settings, ptr %37, i32 0, i32 12
  %39 = load ptr, ptr %38, align 8, !tbaa !9
  %40 = getelementptr inbounds nuw %struct.fsmonitor_settings, ptr %39, i32 0, i32 2
  %41 = load ptr, ptr %40, align 8, !tbaa !35
  call void @free(ptr noundef %41) #7
  %42 = load ptr, ptr %2, align 8, !tbaa !4
  %43 = getelementptr inbounds nuw %struct.repository, ptr %42, i32 0, i32 12
  %44 = getelementptr inbounds nuw %struct.repo_settings, ptr %43, i32 0, i32 12
  %45 = load ptr, ptr %44, align 8, !tbaa !9
  %46 = getelementptr inbounds nuw %struct.fsmonitor_settings, ptr %45, i32 0, i32 2
  store ptr null, ptr %46, align 8, !tbaa !35
  br label %47

47:                                               ; preds = %35
  br label %48

48:                                               ; preds = %47
  store i32 0, ptr %4, align 4
  br label %49

49:                                               ; preds = %48, %9
  call void @llvm.lifetime.end.p0(i64 4, ptr %3) #7
  %50 = load i32, ptr %4, align 4
  switch i32 %50, label %52 [
    i32 0, label %51
    i32 1, label %51
  ]

51:                                               ; preds = %49, %49
  ret void

52:                                               ; preds = %49
  unreachable
}