; Function Attrs: nounwind uwtable
define dso_local void @fsm_settings__set_ipc(ptr noundef captures(none) %0) local_unnamed_addr #0 {
  %2 = getelementptr i8, ptr %0, i64 240
  %.val = load ptr, ptr %2, align 8, !tbaa !32
  %.not.i.not = icmp eq ptr %.val, null
  %3 = getelementptr inbounds nuw i8, ptr %0, i64 304
  %4 = load ptr, ptr %3, align 8, !tbaa !4
  %.not.i11 = icmp eq ptr %4, null
  br i1 %.not.i.not, label %5, label %10

5:                                                ; preds = %1
  br i1 %.not.i11, label %6, label %fsm_settings__set_incompatible.exit

6:                                                ; preds = %5
  %7 = tail call noundef ptr @xcalloc(i64 noundef 1, i64 noundef 16) #9
  store i32 0, ptr %7, align 8, !tbaa !28
  %8 = getelementptr inbounds nuw i8, ptr %7, i64 4
  store i32 0, ptr %8, align 4, !tbaa !33
  store ptr %7, ptr %3, align 8, !tbaa !4
  br label %fsm_settings__set_incompatible.exit

fsm_settings__set_incompatible.exit:              ; preds = %5, %6
  %9 = phi ptr [ %7, %6 ], [ %4, %5 ]
  store i32 -1, ptr %9, align 8, !tbaa !28
  br label %16

10:                                               ; preds = %1
  br i1 %.not.i11, label %11, label %14

11:                                               ; preds = %10
  %12 = tail call noundef ptr @xcalloc(i64 noundef 1, i64 noundef 16) #9
  store i32 0, ptr %12, align 8, !tbaa !28
  %13 = getelementptr inbounds nuw i8, ptr %12, i64 4
  store i32 0, ptr %13, align 4, !tbaa !33
  store ptr %12, ptr %3, align 8, !tbaa !4
  br label %14

14:                                               ; preds = %11, %10
  %15 = phi ptr [ %12, %11 ], [ %4, %10 ]
  store i32 2, ptr %15, align 8, !tbaa !28
  br label %16

16:                                               ; preds = %14, %fsm_settings__set_incompatible.exit
  %.sink16 = phi ptr [ %15, %14 ], [ %9, %fsm_settings__set_incompatible.exit ]
  %.sink14 = phi i32 [ 1, %14 ], [ 2, %fsm_settings__set_incompatible.exit ]
  %17 = getelementptr inbounds nuw i8, ptr %.sink16, i64 4
  store i32 %.sink14, ptr %17, align 4, !tbaa !33
  %18 = getelementptr inbounds nuw i8, ptr %.sink16, i64 8
  %19 = load ptr, ptr %18, align 8, !tbaa !34
  tail call void @free(ptr noundef %19) #9
  %20 = load ptr, ptr %3, align 8, !tbaa !4
  %21 = getelementptr inbounds nuw i8, ptr %20, i64 8
  store ptr null, ptr %21, align 8, !tbaa !34
  ret void
}